(dp1
S'lae_dropin'
p2
ccopy_reg
_reconstructor
p3
(ctwisted.plugin
CachedDropin
p4
c__builtin__
object
p5
NtRp6
(dp7
S'moduleName'
p8
S'twisted.plugins.lae_dropin'
p9
sS'description'
p10
NsS'plugins'
p11
(lp12
g3
(ctwisted.plugin
CachedPlugin
p13
g5
NtRp14
(dp15
S'provided'
p16
(lp17
ctwisted.plugin
IPlugin
p18
actwisted.application.service
IServiceMaker
p19
asS'dropin'
p20
g6
sS'name'
p21
S's4_subscription_converger'
p22
sg10
S'\n    Utility class to simplify the definition of L{IServiceMaker} plugins.\n    '
p23
sbag3
(g13
g5
NtRp24
(dp25
g16
(lp26
g18
ag19
asg20
g6
sg21
S's4_tahoe_transfer_rate_monitor'
p27
sg10
g23
sbag3
(g13
g5
NtRp28
(dp29
g16
(lp30
g18
ag19
asg20
g6
sg21
S's4_grid_router'
p31
sg10
g23
sbag3
(g13
g5
NtRp32
(dp33
g16
(lp34
g18
ag19
asg20
g6
sg21
S's4_subscription_manager'
p35
sg10
g23
sbasbs.